Certificate:
    Data:
        Version: 3 (0x2)
        Serial Number:
            b6:49:23:bb:b3:6b:20:97
    Signature Algorithm: sha256WithRSAEncryption
        Issuer: C=CH, O=Piratenpartei Schweiz, OU=Televotia, CN=Televotia TLS CA
        Validity
            Not Before: Apr 27 17:27:34 2018 GMT
            Not After : Apr 26 17:27:34 2020 GMT
        Subject: C=CH, O=Piratenpartei Schweiz, OU=Televotia, CN=televotia-backend@id.piratenpartei.ch
        Subject Public Key Info:
            Public Key Algorithm: rsaEncryption
                Public-Key: (4096 bit)
                Modulus:
                    00:e9:cf:8a:06:c2:58:a8:29:4e:79:c0:ec:1b:d2:
                    a8:79:93:c8:53:1a:c3:2f:7e:91:87:7f:82:fb:db:
                    89:2f:49:88:f3:dd:16:d7:cc:e2:26:dc:eb:4c:7e:
                    78:d0:1a:13:c7:02:bb:21:2f:fa:98:2c:6b:dd:88:
                    df:9e:ea:23:70:39:5b:d8:52:21:e5:25:d7:49:15:
                    bd:70:16:0d:f4:52:49:77:8d:ee:df:37:e2:32:b0:
                    5b:e9:3f:cb:2b:e2:da:e7:71:8f:71:fa:9b:bc:f9:
                    3b:62:68:a0:e9:51:cf:5c:62:e1:17:1c:ce:75:d8:
                    df:09:44:12:6c:d6:d9:3a:cd:a2:48:39:52:0a:dc:
                    bf:3f:95:13:01:f2:34:ca:dd:af:ad:bd:ca:3b:d3:
                    a9:fb:d1:78:d9:cb:b7:53:00:81:11:ac:57:56:d6:
                    75:02:17:15:ae:77:bd:f4:61:c6:cc:63:7c:88:ad:
                    27:9c:eb:f1:4c:a2:ee:78:78:6b:1e:ac:7b:9a:b1:
                    5e:9f:c3:61:74:fc:89:4d:02:75:d2:88:d1:88:84:
                    e2:27:a1:91:4e:8e:a4:e9:61:4e:00:33:32:86:a9:
                    fd:54:92:e8:ad:48:79:4e:3e:a2:02:bb:bb:df:94:
                    48:0b:60:18:8a:fa:d0:d1:60:1a:a7:6c:90:b0:c9:
                    7b:8e:c6:1f:75:e4:88:6c:a1:9c:29:8b:9e:eb:21:
                    15:18:43:da:da:5a:e3:b2:b5:c0:87:d5:b7:a9:ca:
                    2a:c8:44:5b:a2:cc:96:a2:e5:68:52:ea:a4:ad:ef:
                    ce:f6:c7:1e:e6:79:86:13:47:09:44:84:3d:73:83:
                    05:16:da:8a:46:a7:cb:01:90:f3:a8:2d:95:3c:25:
                    20:db:c7:fb:87:a7:ec:6a:f4:de:85:a7:14:ec:36:
                    d6:50:6c:b3:71:2f:7c:20:08:3c:db:66:42:eb:40:
                    d5:55:50:6e:78:60:51:f7:c6:12:4e:ae:b2:29:5b:
                    d2:c6:fe:f2:3d:1a:93:78:a8:82:27:07:cd:3c:09:
                    61:17:d2:bc:d7:1b:f0:1f:5e:32:8c:d1:3b:39:7f:
                    e7:42:00:40:33:ef:d3:46:db:0d:4b:7d:2f:5c:b9:
                    1e:de:83:11:6b:8a:a1:3a:d6:03:df:4c:06:e8:da:
                    ef:d7:36:b3:75:bc:a4:d7:95:10:95:52:4c:a2:62:
                    0f:e2:23:55:b5:43:41:65:11:c2:5b:c2:9c:3b:ce:
                    db:37:dc:29:9d:8a:0c:d3:b5:2c:fa:7a:9c:0d:db:
                    f1:dc:da:ec:f7:09:41:dc:dd:cf:8b:9b:28:58:a5:
                    79:c4:7a:ad:49:13:ea:81:eb:0e:60:45:74:d7:28:
                    14:7f:cb
                Exponent: 65537 (0x10001)
        X509v3 extensions:
            X509v3 Key Usage: critical
                Digital Signature
            X509v3 Basic Constraints: 
                CA:FALSE
            X509v3 Extended Key Usage: 
                TLS Web Client Authentication
            X509v3 Subject Key Identifier: 
                4B:B4:6F:30:56:9B:0F:70:83:DA:53:FA:D4:D7:2E:31:12:F2:60:AF
            X509v3 Authority Key Identifier: 
                keyid:AC:7A:8B:AA:71:6C:6F:C6:54:2C:EB:1C:31:1B:60:39:81:79:AF:A0

            Authority Information Access: 
                CA Issuers - URI:http://id.piratenpartei.ch/ca/tls-ca.cer

            X509v3 CRL Distribution Points: 

                Full Name:
                  URI:http://id.piratenpartei.ch/ca/tls-ca.crl

            X509v3 Subject Alternative Name: 
                email:televotia-backend@id.piratenpartei.ch
    Signature Algorithm: sha256WithRSAEncryption
         11:b5:cc:34:4f:cf:47:df:b3:8b:b0:b5:43:7f:ae:0e:1c:71:
         d0:33:13:e9:36:7e:0c:d9:f2:d7:15:c9:94:0d:09:b6:04:0c:
         b0:27:3f:57:74:d7:fa:47:2d:1b:3f:ef:54:8a:a1:3d:ce:58:
         73:78:d7:3b:c0:3c:23:83:ce:cf:0e:2a:06:fa:1b:c3:e0:6b:
         0c:b8:2a:8f:07:79:65:f7:46:d3:ad:d3:7a:3b:d2:cd:f5:87:
         a3:0e:8f:ae:63:d1:f6:ff:69:42:2d:f4:ad:1f:1e:08:3f:66:
         34:c9:1c:22:99:b4:08:29:d3:30:ae:58:4c:86:94:5e:1b:53:
         a0:1b:be:3d:ae:1d:7b:38:bb:dd:94:90:77:b1:b0:6a:79:72:
         26:ee:ae:cc:64:ea:68:27:b5:7a:3c:7a:b4:65:fa:96:e4:af:
         28:83:5b:77:4f:dc:a2:9d:d2:d3:33:4e:c7:cb:04:f9:76:c2:
         ac:a6:c5:30:88:ba:38:f3:f8:66:9f:85:3b:d4:07:58:7a:5f:
         5b:89:e6:37:60:cc:35:f4:2a:6e:af:bb:80:b6:9b:2a:2a:2a:
         31:a6:f4:4e:4c:bd:96:4d:d6:b0:7f:bd:e1:c6:ba:f6:77:92:
         9c:67:cd:ab:40:58:97:fd:62:03:d7:3b:f5:38:8b:07:17:2a:
         f9:b8:82:f6:47:0e:6c:99:34:39:18:89:67:54:d4:c1:8b:57:
         df:74:3d:46:6b:05:05:3f:d6:e0:f6:41:18:90:76:4a:0e:93:
         6e:d9:4a:d0:a6:4c:6f:63:92:a3:bc:ac:97:a4:10:0c:db:ea:
         74:9f:24:dd:1c:39:b3:8f:e7:28:de:ee:b9:35:c6:87:90:10:
         95:b7:05:85:79:b8:1e:3a:2e:93:4e:a1:f0:92:f9:8b:59:ee:
         6e:15:15:5a:39:a2:be:20:86:ad:e4:e7:c4:07:80:13:12:5c:
         8a:05:1f:3c:8c:71:7c:ab:33:00:9a:dd:2c:98:53:56:2d:8a:
         67:b0:3d:8c:13:04:d7:e3:fb:4f:ea:8e:d7:52:d6:e2:5a:00:
         b1:71:0c:a5:29:4e:6c:65:95:3a:af:61:e0:d0:90:1f:67:be:
         5b:4d:e4:66:52:6e:15:d6:47:39:15:bc:a3:61:aa:f3:3f:e7:
         b6:ad:a5:ba:ba:59:48:c1:31:44:8e:d0:cd:be:89:a8:d8:d0:
         d4:ff:d6:b9:ec:44:43:be:75:af:1e:71:0d:48:28:6f:a6:56:
         cc:04:41:8f:30:3d:b0:47:09:ff:f1:55:d7:4e:e7:6e:a7:eb:
         41:b2:01:0b:c1:7c:ae:48:8b:cb:34:35:fe:da:21:64:fa:4d:
         cd:9f:b5:7f:0f:28:19:b7
-----BEGIN CERTIFICATE-----
MIIGeTCCBGGgAwIBAgIJALZJI7uzayCXMA0GCSqGSIb3DQEBCwUAMFwxCzAJBgNV
BAYTAkNIMR4wHAYDVQQKDBVQaXJhdGVucGFydGVpIFNjaHdlaXoxEjAQBgNVBAsM
CVRlbGV2b3RpYTEZMBcGA1UEAwwQVGVsZXZvdGlhIFRMUyBDQTAeFw0xODA0Mjcx
NzI3MzRaFw0yMDA0MjYxNzI3MzRaMHExCzAJBgNVBAYTAkNIMR4wHAYDVQQKDBVQ
aXJhdGVucGFydGVpIFNjaHdlaXoxEjAQBgNVBAsMCVRlbGV2b3RpYTEuMCwGA1UE
AwwldGVsZXZvdGlhLWJhY2tlbmRAaWQucGlyYXRlbnBhcnRlaS5jaDCCAiIwDQYJ
KoZIhvcNAQEBBQADggIPADCCAgoCggIBAOnPigbCWKgpTnnA7BvSqHmTyFMawy9+
kYd/gvvbiS9JiPPdFtfM4ibc60x+eNAaE8cCuyEv+pgsa92I357qI3A5W9hSIeUl
10kVvXAWDfRSSXeN7t834jKwW+k/yyvi2udxj3H6m7z5O2JooOlRz1xi4RccznXY
3wlEEmzW2TrNokg5Ugrcvz+VEwHyNMrdr629yjvTqfvReNnLt1MAgRGsV1bWdQIX
Fa53vfRhxsxjfIitJ5zr8Uyi7nh4ax6se5qxXp/DYXT8iU0CddKI0YiE4iehkU6O
pOlhTgAzMoap/VSS6K1IeU4+ogK7u9+USAtgGIr60NFgGqdskLDJe47GH3XkiGyh
nCmLnushFRhD2tpa47K1wIfVt6nKKshEW6LMlqLlaFLqpK3vzvbHHuZ5hhNHCUSE
PXODBRbaikanywGQ86gtlTwlINvH+4en7Gr03oWnFOw21lBss3EvfCAIPNtmQutA
1VVQbnhgUffGEk6usilb0sb+8j0ak3iogicHzTwJYRfSvNcb8B9eMozROzl/50IA
QDPv00bbDUt9L1y5Ht6DEWuKoTrWA99MBuja79c2s3W8pNeVEJVSTKJiD+IjVbVD
QWURwlvCnDvO2zfcKZ2KDNO1LPp6nA3b8dza7PcJQdzdz4ubKFilecR6rUkT6oHr
DmBFdNcoFH/LAgMBAAGjggEnMIIBIzAOBgNVHQ8BAf8EBAMCB4AwCQYDVR0TBAIw
ADATBgNVHSUEDDAKBggrBgEFBQcDAjAdBgNVHQ4EFgQUS7RvMFabD3CD2lP61Ncu
MRLyYK8wHwYDVR0jBBgwFoAUrHqLqnFsb8ZULOscMRtgOYF5r6AwRAYIKwYBBQUH
AQEEODA2MDQGCCsGAQUFBzAChihodHRwOi8vaWQucGlyYXRlbnBhcnRlaS5jaC9j
YS90bHMtY2EuY2VyMDkGA1UdHwQyMDAwLqAsoCqGKGh0dHA6Ly9pZC5waXJhdGVu
cGFydGVpLmNoL2NhL3Rscy1jYS5jcmwwMAYDVR0RBCkwJ4EldGVsZXZvdGlhLWJh
Y2tlbmRAaWQucGlyYXRlbnBhcnRlaS5jaDANBgkqhkiG9w0BAQsFAAOCAgEAEbXM
NE/PR9+zi7C1Q3+uDhxx0DMT6TZ+DNny1xXJlA0JtgQMsCc/V3TX+kctGz/vVIqh
Pc5Yc3jXO8A8I4POzw4qBvobw+BrDLgqjwd5ZfdG063TejvSzfWHow6PrmPR9v9p
Qi30rR8eCD9mNMkcIpm0CCnTMK5YTIaUXhtToBu+Pa4dezi73ZSQd7GwanlyJu6u
zGTqaCe1ejx6tGX6luSvKINbd0/cop3S0zNOx8sE+XbCrKbFMIi6OPP4Zp+FO9QH
WHpfW4nmN2DMNfQqbq+7gLabKioqMab0Tky9lk3WsH+94ca69neSnGfNq0BYl/1i
A9c79TiLBxcq+biC9kcObJk0ORiJZ1TUwYtX33Q9RmsFBT/W4PZBGJB2Sg6TbtlK
0KZMb2OSo7ysl6QQDNvqdJ8k3Rw5s4/nKN7uuTXGh5AQlbcFhXm4Hjouk06h8JL5
i1nubhUVWjmiviCGreTnxAeAExJcigUfPIxxfKszAJrdLJhTVi2KZ7A9jBME1+P7
T+qO11LW4loAsXEMpSlObGWVOq9h4NCQH2e+W03kZlJuFdZHORW8o2Gq8z/ntq2l
urpZSMExRI7Qzb6JqNjQ1P/WuexEQ751rx5xDUgob6ZWzARBjzA9sEcJ//FV107n
bqfrQbIBC8F8rkiLyzQ1/tohZPpNzZ+1fw8oGbc=
-----END CERTIFICATE-----
